; Function Attrs: nounwind uwtable
define internal fastcc noundef ptr @StringAlloc(ptr noundef %0) unnamed_addr #0 {
  %2 = getelementptr inbounds i8, ptr %0, i64 271344
  %3 = getelementptr inbounds i8, ptr %0, i64 271352
  %4 = load i32, ptr %3, align 8
  %5 = getelementptr inbounds i8, ptr %0, i64 271356
  %6 = load i32, ptr %5, align 4
  %7 = sub i32 %4, %6
  %8 = icmp ult i32 %7, 24
  br i1 %8, label %9, label %thread-pre-split.i

9:                                                ; preds = %1
  %10 = icmp eq i32 %4, 0
  %11 = shl i32 %4, 1
  %12 = tail call i32 @llvm.umax.i32(i32 %11, i32 24)
  %storemerge25.i = select i1 %10, i32 20480, i32 %12
  store i32 %storemerge25.i, ptr %3, align 8
  store i32 0, ptr %5, align 4
  %13 = getelementptr inbounds i8, ptr %0, i64 271736
  %14 = load ptr, ptr %13, align 8
  %15 = tail call ptr @_cmsMallocZero(ptr noundef %14, i32 noundef %storemerge25.i) #17
  %.not.i.i = icmp eq ptr %15, null
  br i1 %.not.i.i, label %AllocBigBlock.exit.i, label %16

16:                                               ; preds = %9
  %17 = load ptr, ptr %13, align 8
  %18 = tail call ptr @_cmsMallocZero(ptr noundef %17, i32 noundef 16) #17
  %19 = icmp eq ptr %18, null
  br i1 %19, label %20, label %22

20:                                               ; preds = %16
  %21 = load ptr, ptr %13, align 8
  tail call void @_cmsFree(ptr noundef %21, ptr noundef nonnull %15) #17
  br label %AllocBigBlock.exit.i

22:                                               ; preds = %16
  %23 = getelementptr inbounds i8, ptr %18, i64 8
  store ptr %15, ptr %23, align 8
  %24 = getelementptr inbounds i8, ptr %0, i64 271336
  %25 = load ptr, ptr %24, align 8
  store ptr %25, ptr %18, align 8
  store ptr %18, ptr %24, align 8
  br label %AllocBigBlock.exit.i

AllocBigBlock.exit.i:                             ; preds = %22, %20, %9
  %.0.i.i = phi ptr [ null, %20 ], [ %15, %22 ], [ null, %9 ]
  store ptr %.0.i.i, ptr %2, align 8
  br label %26

thread-pre-split.i:                               ; preds = %1
  %.pr.i = load ptr, ptr %2, align 8
  br label %26

26:                                               ; preds = %thread-pre-split.i, %AllocBigBlock.exit.i
  %27 = phi ptr [ %.pr.i, %thread-pre-split.i ], [ %.0.i.i, %AllocBigBlock.exit.i ]
  %28 = icmp eq ptr %27, null
  br i1 %28, label %AllocChunk.exit.thread, label %AllocChunk.exit

AllocChunk.exit:                                  ; preds = %26
  %29 = load i32, ptr %5, align 4
  %30 = zext i32 %29 to i64
  %31 = getelementptr inbounds i8, ptr %27, i64 %30
  %32 = add i32 %29, 24
  store i32 %32, ptr %5, align 4
  store ptr %0, ptr %31, align 8
  %33 = getelementptr inbounds i8, ptr %31, i64 8
  store i32 1024, ptr %33, align 8
  %34 = getelementptr inbounds i8, ptr %31, i64 12
  store i32 0, ptr %34, align 4
  %35 = load i32, ptr %3, align 8
  %36 = load i32, ptr %5, align 4
  %37 = sub i32 %35, %36
  %38 = icmp ult i32 %37, 1024
  br i1 %38, label %39, label %thread-pre-split.i12

39:                                               ; preds = %AllocChunk.exit
  %40 = icmp eq i32 %35, 0
  %41 = shl i32 %35, 1
  %42 = tail call i32 @llvm.umax.i32(i32 %41, i32 1024)
  %storemerge25.i16 = select i1 %40, i32 20480, i32 %42
  store i32 %storemerge25.i16, ptr %3, align 8
  store i32 0, ptr %5, align 4
  %43 = getelementptr inbounds i8, ptr %0, i64 271736
  %44 = load ptr, ptr %43, align 8
  %45 = tail call ptr @_cmsMallocZero(ptr noundef %44, i32 noundef %storemerge25.i16) #17
  %.not.i.i17 = icmp eq ptr %45, null
  br i1 %.not.i.i17, label %AllocBigBlock.exit.i18, label %46

46:                                               ; preds = %39
  %47 = load ptr, ptr %43, align 8
  %48 = tail call ptr @_cmsMallocZero(ptr noundef %47, i32 noundef 16) #17
  %49 = icmp eq ptr %48, null
  br i1 %49, label %50, label %52

50:                                               ; preds = %46
  %51 = load ptr, ptr %43, align 8
  tail call void @_cmsFree(ptr noundef %51, ptr noundef nonnull %45) #17
  br label %AllocBigBlock.exit.i18

52:                                               ; preds = %46
  %53 = getelementptr inbounds i8, ptr %48, i64 8
  store ptr %45, ptr %53, align 8
  %54 = getelementptr inbounds i8, ptr %0, i64 271336
  %55 = load ptr, ptr %54, align 8
  store ptr %55, ptr %48, align 8
  store ptr %48, ptr %54, align 8
  br label %AllocBigBlock.exit.i18

AllocBigBlock.exit.i18:                           ; preds = %52, %50, %39
  %.0.i.i19 = phi ptr [ null, %50 ], [ %45, %52 ], [ null, %39 ]
  store ptr %.0.i.i19, ptr %2, align 8
  br label %56

thread-pre-split.i12:                             ; preds = %AllocChunk.exit
  %.pr.i13 = load ptr, ptr %2, align 8
  br label %56

56:                                               ; preds = %thread-pre-split.i12, %AllocBigBlock.exit.i18
  %57 = phi ptr [ %.pr.i13, %thread-pre-split.i12 ], [ %.0.i.i19, %AllocBigBlock.exit.i18 ]
  %58 = icmp eq ptr %57, null
  br i1 %58, label %AllocChunk.exit20, label %59

59:                                               ; preds = %56
  %60 = load i32, ptr %5, align 4
  %61 = zext i32 %60 to i64
  %62 = getelementptr inbounds i8, ptr %57, i64 %61
  %63 = add i32 %60, 1024
  store i32 %63, ptr %5, align 4
  br label %AllocChunk.exit20

AllocChunk.exit20:                                ; preds = %56, %59
  %.0.i14 = phi ptr [ %62, %59 ], [ null, %56 ]
  %64 = getelementptr inbounds i8, ptr %31, i64 16
  store ptr %.0.i14, ptr %64, align 8
  br label %AllocChunk.exit.thread

AllocChunk.exit.thread:                           ; preds = %26, %AllocChunk.exit20
  %.0 = phi ptr [ %31, %AllocChunk.exit20 ], [ null, %26 ]
  ret ptr %.0
}